target datalayout = "e-m:e-p270:32:32-p271:32:32-p272:64:64-i64:64-i128:128-f80:128-n8:16:32:64-S128"
target triple = "x86_64-pc-linux-gnu"

%struct.dict = type { ptr, [2 x ptr], [2 x i64], i64, i16, [2 x i8], i16, [0 x ptr] }

@lazyfree_objects = internal global i64 0, align 8
@lazyfreed_objects = internal global i64 0, align 8

; Function Attrs: nounwind uwtable
define dso_local void @lazyFreeLuaScripts(ptr noundef %0) #0 {
  %2 = alloca ptr, align 8
  %3 = alloca ptr, align 8
  %4 = alloca ptr, align 8
  %5 = alloca ptr, align 8
  %6 = alloca i64, align 8
  %7 = alloca i64, align 8
  %8 = alloca i64, align 8
  %9 = alloca i64, align 8
  %10 = alloca i64, align 8
  store ptr %0, ptr %2, align 8, !tbaa !5
  call void @llvm.lifetime.start.p0(i64 8, ptr %3) #7
  %11 = load ptr, ptr %2, align 8, !tbaa !5
  %12 = getelementptr inbounds ptr, ptr %11, i64 0
  %13 = load ptr, ptr %12, align 8, !tbaa !5
  store ptr %13, ptr %3, align 8, !tbaa !17
  call void @llvm.lifetime.start.p0(i64 8, ptr %4) #7
  %14 = load ptr, ptr %2, align 8, !tbaa !5
  %15 = getelementptr inbounds ptr, ptr %14, i64 1
  %16 = load ptr, ptr %15, align 8, !tbaa !5
  store ptr %16, ptr %4, align 8, !tbaa !19
  call void @llvm.lifetime.start.p0(i64 8, ptr %5) #7
  %17 = load ptr, ptr %2, align 8, !tbaa !5
  %18 = getelementptr inbounds ptr, ptr %17, i64 2
  %19 = load ptr, ptr %18, align 8, !tbaa !5
  store ptr %19, ptr %5, align 8, !tbaa !21
  call void @llvm.lifetime.start.p0(i64 8, ptr %6) #7
  %20 = load ptr, ptr %3, align 8, !tbaa !17
  %21 = getelementptr inbounds nuw %struct.dict, ptr %20, i32 0, i32 2
  %22 = getelementptr inbounds [2 x i64], ptr %21, i64 0, i64 0
  %23 = load i64, ptr %22, align 8, !tbaa !11
  %24 = load ptr, ptr %3, align 8, !tbaa !17
  %25 = getelementptr inbounds nuw %struct.dict, ptr %24, i32 0, i32 2
  %26 = getelementptr inbounds [2 x i64], ptr %25, i64 0, i64 1
  %27 = load i64, ptr %26, align 8, !tbaa !11
  %28 = add i64 %23, %27
  store i64 %28, ptr %6, align 8, !tbaa !23
  %29 = load ptr, ptr %3, align 8, !tbaa !17
  %30 = load ptr, ptr %4, align 8, !tbaa !19
  %31 = load ptr, ptr %5, align 8, !tbaa !21
  call void @freeLuaScriptsSync(ptr noundef %29, ptr noundef %30, ptr noundef %31)
  %32 = load i64, ptr %6, align 8, !tbaa !23
  store i64 %32, ptr %7, align 8, !tbaa !11
  %33 = load i64, ptr %7, align 8
  %34 = atomicrmw sub ptr @lazyfree_objects, i64 %33 monotonic, align 8
  store i64 %34, ptr %8, align 8
  %35 = load i64, ptr %6, align 8, !tbaa !23
  store i64 %35, ptr %9, align 8, !tbaa !11
  %36 = load i64, ptr %9, align 8
  %37 = atomicrmw add ptr @lazyfreed_objects, i64 %36 monotonic, align 8
  store i64 %37, ptr %10, align 8
  call void @llvm.lifetime.end.p0(i64 8, ptr %6) #7
  call void @llvm.lifetime.end.p0(i64 8, ptr %5) #7
  call void @llvm.lifetime.end.p0(i64 8, ptr %4) #7
  call void @llvm.lifetime.end.p0(i64 8, ptr %3) #7
  ret void
}