; Function Attrs: nounwind uwtable
define dso_local void @lazyFreeLuaScripts(ptr noundef readonly captures(none) %0) #0 {
  %2 = load ptr, ptr %0, align 8, !tbaa !5
  %3 = getelementptr inbounds nuw i8, ptr %0, i64 8
  %4 = load ptr, ptr %3, align 8, !tbaa !5
  %5 = getelementptr inbounds nuw i8, ptr %0, i64 16
  %6 = load ptr, ptr %5, align 8, !tbaa !5
  %7 = getelementptr inbounds nuw i8, ptr %2, i64 24
  %8 = load i64, ptr %7, align 8, !tbaa !9
  %9 = getelementptr inbounds nuw i8, ptr %2, i64 32
  %10 = load i64, ptr %9, align 8, !tbaa !9
  %11 = add i64 %10, %8
  tail call void @freeLuaScriptsSync(ptr noundef %2, ptr noundef %4, ptr noundef %6) #6
  %12 = atomicrmw sub ptr @lazyfree_objects, i64 %11 monotonic, align 8
  %13 = atomicrmw add ptr @lazyfreed_objects, i64 %11 monotonic, align 8
  ret void
}